target datalayout = "e-m:e-p270:32:32-p271:32:32-p272:64:64-i64:64-i128:128-f80:128-n8:16:32:64-S128"
target triple = "x86_64-pc-linux-gnu"

%"class.Ipopt::StdInterfaceTNLP" = type { %"class.Ipopt::TNLP.base", %"class.Ipopt::SmartPtr", i32, i32, ptr, ptr, ptr, ptr, i32, i32, i32, ptr, ptr, ptr, ptr, ptr, ptr, ptr, ptr, ptr, ptr, ptr, double, ptr, ptr, ptr, ptr, ptr, ptr, ptr, ptr, ptr, ptr, ptr }
%"class.Ipopt::TNLP.base" = type { %"class.Ipopt::ReferencedObject.base" }
%"class.Ipopt::ReferencedObject.base" = type <{ ptr, i32 }>
%"class.Ipopt::SmartPtr" = type { ptr }

; Function Attrs: mustprogress uwtable
define void @_ZN5Ipopt16StdInterfaceTNLP11apply_new_xEbiPKd(ptr noundef nonnull align 8 dereferenceable(264) %0, i1 noundef zeroext %1, i32 noundef %2, ptr noundef %3) #0 align 2 {
  %5 = alloca ptr, align 8
  %6 = alloca i8, align 1
  %7 = alloca i32, align 4
  %8 = alloca ptr, align 8
  store ptr %0, ptr %5, align 8
  %9 = zext i1 %1 to i8
  store i8 %9, ptr %6, align 1
  store i32 %2, ptr %7, align 4
  store ptr %3, ptr %8, align 8
  %10 = load ptr, ptr %5, align 8
  %11 = load i8, ptr %6, align 1
  %12 = trunc i8 %11 to i1
  br i1 %12, label %13, label %31

13:                                               ; preds = %4
  %14 = getelementptr inbounds %"class.Ipopt::StdInterfaceTNLP", ptr %10, i32 0, i32 25
  %15 = load ptr, ptr %14, align 8
  %16 = icmp eq ptr %15, null
  br i1 %16, label %17, label %26

17:                                               ; preds = %13
  %18 = load i32, ptr %7, align 4
  %19 = sext i32 %18 to i64
  %20 = call { i64, i1 } @llvm.umul.with.overflow.i64(i64 %19, i64 8)
  %21 = extractvalue { i64, i1 } %20, 1
  %22 = extractvalue { i64, i1 } %20, 0
  %23 = select i1 %21, i64 -1, i64 %22
  %24 = call noalias noundef nonnull ptr @_Znam(i64 noundef %23) #12
  %25 = getelementptr inbounds %"class.Ipopt::StdInterfaceTNLP", ptr %10, i32 0, i32 25
  store ptr %24, ptr %25, align 8
  br label %26

26:                                               ; preds = %17, %13
  %27 = load i32, ptr %7, align 4
  %28 = load ptr, ptr %8, align 8
  %29 = getelementptr inbounds %"class.Ipopt::StdInterfaceTNLP", ptr %10, i32 0, i32 25
  %30 = load ptr, ptr %29, align 8
  call void @_ZN5Ipopt10IpBlasCopyEiPKdiPdi(i32 noundef %27, ptr noundef %28, i32 noundef 1, ptr noundef %30, i32 noundef 1)
  br label %31

31:                                               ; preds = %26, %4
  ret void
}

; Function Attrs: mustprogress uwtable
define noundef zeroext i1 @_ZN5Ipopt16StdInterfaceTNLP6eval_hEiPKdbdiS2_biPiS3_Pd(ptr noundef nonnull align 8 dereferenceable(264) %0, i32 noundef %1, ptr noundef %2, i1 noundef zeroext %3, double noundef %4, i32 noundef %5, ptr noundef %6, i1 noundef zeroext %7, i32 noundef %8, ptr noundef %9, ptr noundef %10, ptr noundef %11) unnamed_addr #0 align 2 {
  %13 = alloca ptr, align 8
  %14 = alloca i32, align 4
  %15 = alloca ptr, align 8
  %16 = alloca i8, align 1
  %17 = alloca double, align 8
  %18 = alloca i32, align 4
  %19 = alloca ptr, align 8
  %20 = alloca i8, align 1
  %21 = alloca i32, align 4
  %22 = alloca ptr, align 8
  %23 = alloca ptr, align 8
  %24 = alloca ptr, align 8
  %25 = alloca ptr, align 8
  %26 = alloca i8, align 1
  store ptr %0, ptr %13, align 8
  store i32 %1, ptr %14, align 4
  store ptr %2, ptr %15, align 8
  %27 = zext i1 %3 to i8
  store i8 %27, ptr %16, align 1
  store double %4, ptr %17, align 8
  store i32 %5, ptr %18, align 4
  store ptr %6, ptr %19, align 8
  %28 = zext i1 %7 to i8
  store i8 %28, ptr %20, align 1
  store i32 %8, ptr %21, align 4
  store ptr %9, ptr %22, align 8
  store ptr %10, ptr %23, align 8
  store ptr %11, ptr %24, align 8
  %29 = load ptr, ptr %13, align 8
  %30 = load i8, ptr %16, align 1
  %31 = trunc i8 %30 to i1
  %32 = load i32, ptr %14, align 4
  %33 = load ptr, ptr %15, align 8
  call void @_ZN5Ipopt16StdInterfaceTNLP11apply_new_xEbiPKd(ptr noundef nonnull align 8 dereferenceable(264) %29, i1 noundef zeroext %31, i32 noundef %32, ptr noundef %33)
  %34 = load i32, ptr %18, align 4
  %35 = sext i32 %34 to i64
  %36 = call { i64, i1 } @llvm.umul.with.overflow.i64(i64 %35, i64 8)
  %37 = extractvalue { i64, i1 } %36, 1
  %38 = extractvalue { i64, i1 } %36, 0
  %39 = select i1 %37, i64 -1, i64 %38
  %40 = call noalias noundef nonnull ptr @_Znam(i64 noundef %39) #12
  store ptr %40, ptr %25, align 8
  %41 = load ptr, ptr %19, align 8
  %42 = icmp ne ptr %41, null
  br i1 %42, label %43, label %47

43:                                               ; preds = %12
  %44 = load i32, ptr %18, align 4
  %45 = load ptr, ptr %19, align 8
  %46 = load ptr, ptr %25, align 8
  call void @_ZN5Ipopt10IpBlasCopyEiPKdiPdi(i32 noundef %44, ptr noundef %45, i32 noundef 1, ptr noundef %46, i32 noundef 1)
  br label %47

47:                                               ; preds = %43, %12
  %48 = getelementptr inbounds %"class.Ipopt::StdInterfaceTNLP", ptr %29, i32 0, i32 19
  %49 = load ptr, ptr %48, align 8
  %50 = load i32, ptr %14, align 4
  %51 = getelementptr inbounds %"class.Ipopt::StdInterfaceTNLP", ptr %29, i32 0, i32 25
  %52 = load ptr, ptr %51, align 8
  %53 = load i8, ptr %16, align 1
  %54 = trunc i8 %53 to i1
  %55 = load double, ptr %17, align 8
  %56 = load i32, ptr %18, align 4
  %57 = load ptr, ptr %25, align 8
  %58 = load i8, ptr %20, align 1
  %59 = trunc i8 %58 to i1
  %60 = load i32, ptr %21, align 4
  %61 = load ptr, ptr %22, align 8
  %62 = load ptr, ptr %23, align 8
  %63 = load ptr, ptr %24, align 8
  %64 = getelementptr inbounds %"class.Ipopt::StdInterfaceTNLP", ptr %29, i32 0, i32 21
  %65 = load ptr, ptr %64, align 8
  %66 = call noundef zeroext i1 %49(i32 noundef %50, ptr noundef %52, i1 noundef zeroext %54, double noundef %55, i32 noundef %56, ptr noundef %57, i1 noundef zeroext %59, i32 noundef %60, ptr noundef %61, ptr noundef %62, ptr noundef %63, ptr noundef %65)
  %67 = zext i1 %66 to i8
  store i8 %67, ptr %26, align 1
  %68 = load ptr, ptr %25, align 8
  %69 = icmp eq ptr %68, null
  br i1 %69, label %71, label %70

70:                                               ; preds = %47
  call void @_ZdaPv(ptr noundef %68) #14
  br label %71

71:                                               ; preds = %70, %47
  %72 = load i8, ptr %26, align 1
  %73 = trunc i8 %72 to i1
  %74 = zext i1 %73 to i32
  %75 = icmp ne i32 %74, 0
  ret i1 %75
}