; Function Attrs: mustprogress uwtable
define noundef zeroext i1 @_ZN5Ipopt16StdInterfaceTNLP6eval_hEiPKdbdiS2_biPiS3_Pd(ptr nocapture noundef nonnull align 8 dereferenceable(264) %0, i32 noundef %1, ptr noundef %2, i1 noundef zeroext %3, double noundef %4, i32 noundef %5, ptr noundef %6, i1 noundef zeroext %7, i32 noundef %8, ptr noundef %9, ptr noundef %10, ptr noundef %11) unnamed_addr #0 align 2 {
  br i1 %3, label %13, label %_ZN5Ipopt16StdInterfaceTNLP11apply_new_xEbiPKd.exit

13:                                               ; preds = %12
  %14 = getelementptr inbounds i8, ptr %0, i64 192
  %15 = load ptr, ptr %14, align 8
  %16 = icmp eq ptr %15, null
  br i1 %16, label %17, label %23

17:                                               ; preds = %13
  %18 = zext nneg i32 %1 to i64
  %19 = icmp slt i32 %1, 0
  %20 = shl nuw nsw i64 %18, 3
  %21 = select i1 %19, i64 -1, i64 %20
  %22 = tail call noalias noundef nonnull ptr @_Znam(i64 noundef %21) #13
  store ptr %22, ptr %14, align 8
  br label %23

23:                                               ; preds = %17, %13
  %24 = phi ptr [ %22, %17 ], [ %15, %13 ]
  tail call void @_ZN5Ipopt10IpBlasCopyEiPKdiPdi(i32 noundef %1, ptr noundef %2, i32 noundef 1, ptr noundef nonnull %24, i32 noundef 1)
  br label %_ZN5Ipopt16StdInterfaceTNLP11apply_new_xEbiPKd.exit

_ZN5Ipopt16StdInterfaceTNLP11apply_new_xEbiPKd.exit: ; preds = %12, %23
  %25 = zext nneg i32 %5 to i64
  %26 = icmp slt i32 %5, 0
  %27 = shl nuw nsw i64 %25, 3
  %28 = select i1 %26, i64 -1, i64 %27
  %29 = tail call noalias noundef nonnull ptr @_Znam(i64 noundef %28) #13
  %.not = icmp eq ptr %6, null
  br i1 %.not, label %31, label %30

30:                                               ; preds = %_ZN5Ipopt16StdInterfaceTNLP11apply_new_xEbiPKd.exit
  tail call void @_ZN5Ipopt10IpBlasCopyEiPKdiPdi(i32 noundef %5, ptr noundef nonnull %6, i32 noundef 1, ptr noundef nonnull %29, i32 noundef 1)
  br label %31

31:                                               ; preds = %30, %_ZN5Ipopt16StdInterfaceTNLP11apply_new_xEbiPKd.exit
  %32 = getelementptr inbounds i8, ptr %0, i64 144
  %33 = load ptr, ptr %32, align 8
  %34 = getelementptr inbounds i8, ptr %0, i64 192
  %35 = load ptr, ptr %34, align 8
  %36 = getelementptr inbounds i8, ptr %0, i64 160
  %37 = load ptr, ptr %36, align 8
  %38 = tail call noundef zeroext i1 %33(i32 noundef %1, ptr noundef %35, i1 noundef zeroext %3, double noundef %4, i32 noundef %5, ptr noundef nonnull %29, i1 noundef zeroext %7, i32 noundef %8, ptr noundef %9, ptr noundef %10, ptr noundef %11, ptr noundef %37)
  tail call void @_ZdaPv(ptr noundef nonnull %29) #14
  ret i1 %38
}